target datalayout = "e-m:e-p270:32:32-p271:32:32-p272:64:64-i64:64-i128:128-f80:128-n8:16:32:64-S128"
target triple = "x86_64-pc-linux-gnu"

%"class.pmx::PmxSetting" = type { i8, i8, i8, i8, i8, i8, i8, i8 }

@.str = private unnamed_addr constant [18 x i8] c"MMD: invalid size\00", align 1
@_ZTI17DeadlyImportError = linkonce_odr constant { ptr, ptr, ptr } { ptr getelementptr inbounds (ptr, ptr @_ZTVN10__cxxabiv120__si_class_type_infoE, i64 2), ptr @_ZTS17DeadlyImportError, ptr @_ZTI15DeadlyErrorBase }, comdat, align 8

; Function Attrs: mustprogress uwtable
define hidden void @_ZN3pmx10PmxSetting4ReadEPSi(ptr noundef nonnull align 1 dereferenceable(8) %0, ptr noundef %1) #4 align 2 personality ptr @__gxx_personality_v0 {
  %3 = alloca ptr, align 8
  %4 = alloca ptr, align 8
  %5 = alloca i8, align 1
  %6 = alloca ptr, align 8
  %7 = alloca i32, align 4
  %8 = alloca i8, align 1
  %9 = alloca i32, align 4
  store ptr %0, ptr %3, align 8
  store ptr %1, ptr %4, align 8
  %10 = load ptr, ptr %3, align 8
  call void @llvm.lifetime.start.p0(i64 1, ptr %5) #3
  %11 = load ptr, ptr %4, align 8
  %12 = call noundef nonnull align 8 dereferenceable(16) ptr @_ZNSi4readEPcl(ptr noundef nonnull align 8 dereferenceable(16) %11, ptr noundef %5, i64 noundef 1)
  %13 = load i8, ptr %5, align 1
  %14 = zext i8 %13 to i32
  %15 = icmp slt i32 %14, 8
  br i1 %15, label %16, label %23

16:                                               ; preds = %2
  %17 = call ptr @__cxa_allocate_exception(i64 16) #3
  invoke void @_ZN17DeadlyImportErrorC2EPKc(ptr noundef nonnull align 8 dereferenceable(16) %17, ptr noundef @.str)
          to label %18 unwind label %19

18:                                               ; preds = %16
  call void @__cxa_throw(ptr %17, ptr @_ZTI17DeadlyImportError, ptr @_ZNSt13runtime_errorD2Ev) #23
  unreachable

19:                                               ; preds = %16
  %20 = landingpad { ptr, i32 }
          cleanup
  %21 = extractvalue { ptr, i32 } %20, 0
  store ptr %21, ptr %6, align 8
  %22 = extractvalue { ptr, i32 } %20, 1
  store i32 %22, ptr %7, align 4
  call void @__cxa_free_exception(ptr %17) #3
  call void @llvm.lifetime.end.p0(i64 1, ptr %5) #3
  br label %61

23:                                               ; preds = %2
  %24 = load ptr, ptr %4, align 8
  %25 = getelementptr inbounds nuw %"class.pmx::PmxSetting", ptr %10, i32 0, i32 0
  %26 = call noundef nonnull align 8 dereferenceable(16) ptr @_ZNSi4readEPcl(ptr noundef nonnull align 8 dereferenceable(16) %24, ptr noundef %25, i64 noundef 1)
  %27 = load ptr, ptr %4, align 8
  %28 = getelementptr inbounds nuw %"class.pmx::PmxSetting", ptr %10, i32 0, i32 1
  %29 = call noundef nonnull align 8 dereferenceable(16) ptr @_ZNSi4readEPcl(ptr noundef nonnull align 8 dereferenceable(16) %27, ptr noundef %28, i64 noundef 1)
  %30 = load ptr, ptr %4, align 8
  %31 = getelementptr inbounds nuw %"class.pmx::PmxSetting", ptr %10, i32 0, i32 2
  %32 = call noundef nonnull align 8 dereferenceable(16) ptr @_ZNSi4readEPcl(ptr noundef nonnull align 8 dereferenceable(16) %30, ptr noundef %31, i64 noundef 1)
  %33 = load ptr, ptr %4, align 8
  %34 = getelementptr inbounds nuw %"class.pmx::PmxSetting", ptr %10, i32 0, i32 3
  %35 = call noundef nonnull align 8 dereferenceable(16) ptr @_ZNSi4readEPcl(ptr noundef nonnull align 8 dereferenceable(16) %33, ptr noundef %34, i64 noundef 1)
  %36 = load ptr, ptr %4, align 8
  %37 = getelementptr inbounds nuw %"class.pmx::PmxSetting", ptr %10, i32 0, i32 4
  %38 = call noundef nonnull align 8 dereferenceable(16) ptr @_ZNSi4readEPcl(ptr noundef nonnull align 8 dereferenceable(16) %36, ptr noundef %37, i64 noundef 1)
  %39 = load ptr, ptr %4, align 8
  %40 = getelementptr inbounds nuw %"class.pmx::PmxSetting", ptr %10, i32 0, i32 5
  %41 = call noundef nonnull align 8 dereferenceable(16) ptr @_ZNSi4readEPcl(ptr noundef nonnull align 8 dereferenceable(16) %39, ptr noundef %40, i64 noundef 1)
  %42 = load ptr, ptr %4, align 8
  %43 = getelementptr inbounds nuw %"class.pmx::PmxSetting", ptr %10, i32 0, i32 6
  %44 = call noundef nonnull align 8 dereferenceable(16) ptr @_ZNSi4readEPcl(ptr noundef nonnull align 8 dereferenceable(16) %42, ptr noundef %43, i64 noundef 1)
  %45 = load ptr, ptr %4, align 8
  %46 = getelementptr inbounds nuw %"class.pmx::PmxSetting", ptr %10, i32 0, i32 7
  %47 = call noundef nonnull align 8 dereferenceable(16) ptr @_ZNSi4readEPcl(ptr noundef nonnull align 8 dereferenceable(16) %45, ptr noundef %46, i64 noundef 1)
  call void @llvm.lifetime.start.p0(i64 1, ptr %8) #3
  call void @llvm.lifetime.start.p0(i64 4, ptr %9) #3
  store i32 8, ptr %9, align 4
  br label %48

48:                                               ; preds = %57, %23
  %49 = load i32, ptr %9, align 4
  %50 = load i8, ptr %5, align 1
  %51 = zext i8 %50 to i32
  %52 = icmp slt i32 %49, %51
  br i1 %52, label %54, label %53

53:                                               ; preds = %48
  call void @llvm.lifetime.end.p0(i64 4, ptr %9) #3
  br label %60

54:                                               ; preds = %48
  %55 = load ptr, ptr %4, align 8
  %56 = call noundef nonnull align 8 dereferenceable(16) ptr @_ZNSi4readEPcl(ptr noundef nonnull align 8 dereferenceable(16) %55, ptr noundef %8, i64 noundef 1)
  br label %57

57:                                               ; preds = %54
  %58 = load i32, ptr %9, align 4
  %59 = add nsw i32 %58, 1
  store i32 %59, ptr %9, align 4
  br label %48, !llvm.loop !5

60:                                               ; preds = %53
  call void @llvm.lifetime.end.p0(i64 1, ptr %8) #3
  call void @llvm.lifetime.end.p0(i64 1, ptr %5) #3
  ret void

61:                                               ; preds = %19
  %62 = load ptr, ptr %6, align 8
  %63 = load i32, ptr %7, align 4
  %64 = insertvalue { ptr, i32 } poison, ptr %62, 0
  %65 = insertvalue { ptr, i32 } %64, i32 %63, 1
  resume { ptr, i32 } %65
}