; Function Attrs: mustprogress uwtable
define hidden void @_ZN3pmx10PmxSetting4ReadEPSi(ptr noundef nonnull align 1 dereferenceable(8) %0, ptr noundef nonnull %1) local_unnamed_addr #3 align 2 personality ptr @__gxx_personality_v0 {
  %3 = alloca i8, align 1
  %4 = alloca i8, align 1
  call void @llvm.lifetime.start.p0(i64 1, ptr nonnull %3) #20
  %5 = call noundef nonnull align 8 dereferenceable(16) ptr @_ZNSi4readEPcl(ptr noundef nonnull align 8 dereferenceable(16) %1, ptr noundef nonnull %3, i64 noundef 1)
  %6 = load i8, ptr %3, align 1
  %7 = icmp ult i8 %6, 8
  br i1 %7, label %8, label %13

8:                                                ; preds = %2
  %9 = call ptr @__cxa_allocate_exception(i64 16) #20
  invoke void @_ZN17DeadlyImportErrorC2EPKc(ptr noundef nonnull align 8 dereferenceable(16) %9, ptr noundef nonnull @.str)
          to label %10 unwind label %11

10:                                               ; preds = %8
  call void @__cxa_throw(ptr nonnull %9, ptr nonnull @_ZTI17DeadlyImportError, ptr nonnull @_ZNSt13runtime_errorD2Ev) #21
  unreachable

11:                                               ; preds = %8
  %12 = landingpad { ptr, i32 }
          cleanup
  call void @__cxa_free_exception(ptr nonnull %9) #20
  call void @llvm.lifetime.end.p0(i64 1, ptr nonnull %3) #20
  resume { ptr, i32 } %12

13:                                               ; preds = %2
  %14 = call noundef nonnull align 8 dereferenceable(16) ptr @_ZNSi4readEPcl(ptr noundef nonnull align 8 dereferenceable(16) %1, ptr noundef nonnull %0, i64 noundef 1)
  %15 = getelementptr inbounds nuw i8, ptr %0, i64 1
  %16 = call noundef nonnull align 8 dereferenceable(16) ptr @_ZNSi4readEPcl(ptr noundef nonnull align 8 dereferenceable(16) %1, ptr noundef nonnull %15, i64 noundef 1)
  %17 = getelementptr inbounds nuw i8, ptr %0, i64 2
  %18 = call noundef nonnull align 8 dereferenceable(16) ptr @_ZNSi4readEPcl(ptr noundef nonnull align 8 dereferenceable(16) %1, ptr noundef nonnull %17, i64 noundef 1)
  %19 = getelementptr inbounds nuw i8, ptr %0, i64 3
  %20 = call noundef nonnull align 8 dereferenceable(16) ptr @_ZNSi4readEPcl(ptr noundef nonnull align 8 dereferenceable(16) %1, ptr noundef nonnull %19, i64 noundef 1)
  %21 = getelementptr inbounds nuw i8, ptr %0, i64 4
  %22 = call noundef nonnull align 8 dereferenceable(16) ptr @_ZNSi4readEPcl(ptr noundef nonnull align 8 dereferenceable(16) %1, ptr noundef nonnull %21, i64 noundef 1)
  %23 = getelementptr inbounds nuw i8, ptr %0, i64 5
  %24 = call noundef nonnull align 8 dereferenceable(16) ptr @_ZNSi4readEPcl(ptr noundef nonnull align 8 dereferenceable(16) %1, ptr noundef nonnull %23, i64 noundef 1)
  %25 = getelementptr inbounds nuw i8, ptr %0, i64 6
  %26 = call noundef nonnull align 8 dereferenceable(16) ptr @_ZNSi4readEPcl(ptr noundef nonnull align 8 dereferenceable(16) %1, ptr noundef nonnull %25, i64 noundef 1)
  %27 = getelementptr inbounds nuw i8, ptr %0, i64 7
  %28 = call noundef nonnull align 8 dereferenceable(16) ptr @_ZNSi4readEPcl(ptr noundef nonnull align 8 dereferenceable(16) %1, ptr noundef nonnull %27, i64 noundef 1)
  call void @llvm.lifetime.start.p0(i64 1, ptr nonnull %4) #20
  %29 = load i8, ptr %3, align 1
  %30 = icmp ugt i8 %29, 8
  br i1 %30, label %.lr.ph, label %._crit_edge

._crit_edge:                                      ; preds = %.lr.ph, %13
  call void @llvm.lifetime.end.p0(i64 1, ptr nonnull %4) #20
  call void @llvm.lifetime.end.p0(i64 1, ptr nonnull %3) #20
  ret void

.lr.ph:                                           ; preds = %13, %.lr.ph
  %.014 = phi i32 [ %32, %.lr.ph ], [ 8, %13 ]
  %31 = call noundef nonnull align 8 dereferenceable(16) ptr @_ZNSi4readEPcl(ptr noundef nonnull align 8 dereferenceable(16) %1, ptr noundef nonnull %4, i64 noundef 1)
  %32 = add nuw nsw i32 %.014, 1
  %33 = load i8, ptr %3, align 1
  %34 = zext i8 %33 to i32
  %35 = icmp samesign ult i32 %32, %34
  br i1 %35, label %.lr.ph, label %._crit_edge, !llvm.loop !5
}